target datalayout = "e-m:e-p270:32:32-p271:32:32-p272:64:64-i64:64-i128:128-f80:128-n8:16:32:64-S128"
target triple = "x86_64-pc-linux-gnu"

%struct.tsi_frame_protector = type { ptr }
%struct.tsi_frame_protector_vtable = type { ptr, ptr, ptr, ptr }

; Function Attrs: mustprogress uwtable
define noundef i32 @_Z27tsi_frame_protector_protectP19tsi_frame_protectorPKhPmPhS3_(ptr noundef %0, ptr noundef %1, ptr noundef %2, ptr noundef %3, ptr noundef %4) #5 {
  %6 = alloca i32, align 4
  %7 = alloca ptr, align 8
  %8 = alloca ptr, align 8
  %9 = alloca ptr, align 8
  %10 = alloca ptr, align 8
  %11 = alloca ptr, align 8
  store ptr %0, ptr %7, align 8, !tbaa !9
  store ptr %1, ptr %8, align 8, !tbaa !12
  store ptr %2, ptr %9, align 8, !tbaa !14
  store ptr %3, ptr %10, align 8, !tbaa !12
  store ptr %4, ptr %11, align 8, !tbaa !14
  %12 = load ptr, ptr %7, align 8, !tbaa !9
  %13 = icmp eq ptr %12, null
  br i1 %13, label %31, label %14

14:                                               ; preds = %5
  %15 = load ptr, ptr %7, align 8, !tbaa !9
  %16 = getelementptr inbounds nuw %struct.tsi_frame_protector, ptr %15, i32 0, i32 0
  %17 = load ptr, ptr %16, align 8, !tbaa !16
  %18 = icmp eq ptr %17, null
  br i1 %18, label %31, label %19

19:                                               ; preds = %14
  %20 = load ptr, ptr %8, align 8, !tbaa !12
  %21 = icmp eq ptr %20, null
  br i1 %21, label %31, label %22

22:                                               ; preds = %19
  %23 = load ptr, ptr %9, align 8, !tbaa !14
  %24 = icmp eq ptr %23, null
  br i1 %24, label %31, label %25

25:                                               ; preds = %22
  %26 = load ptr, ptr %10, align 8, !tbaa !12
  %27 = icmp eq ptr %26, null
  br i1 %27, label %31, label %28

28:                                               ; preds = %25
  %29 = load ptr, ptr %11, align 8, !tbaa !14
  %30 = icmp eq ptr %29, null
  br i1 %30, label %31, label %32

31:                                               ; preds = %28, %25, %22, %19, %14, %5
  store i32 2, ptr %6, align 4
  br label %52

32:                                               ; preds = %28
  %33 = load ptr, ptr %7, align 8, !tbaa !9
  %34 = getelementptr inbounds nuw %struct.tsi_frame_protector, ptr %33, i32 0, i32 0
  %35 = load ptr, ptr %34, align 8, !tbaa !16
  %36 = getelementptr inbounds nuw %struct.tsi_frame_protector_vtable, ptr %35, i32 0, i32 0
  %37 = load ptr, ptr %36, align 8, !tbaa !19
  %38 = icmp eq ptr %37, null
  br i1 %38, label %39, label %40

39:                                               ; preds = %32
  store i32 6, ptr %6, align 4
  br label %52

40:                                               ; preds = %32
  %41 = load ptr, ptr %7, align 8, !tbaa !9
  %42 = getelementptr inbounds nuw %struct.tsi_frame_protector, ptr %41, i32 0, i32 0
  %43 = load ptr, ptr %42, align 8, !tbaa !16
  %44 = getelementptr inbounds nuw %struct.tsi_frame_protector_vtable, ptr %43, i32 0, i32 0
  %45 = load ptr, ptr %44, align 8, !tbaa !19
  %46 = load ptr, ptr %7, align 8, !tbaa !9
  %47 = load ptr, ptr %8, align 8, !tbaa !12
  %48 = load ptr, ptr %9, align 8, !tbaa !14
  %49 = load ptr, ptr %10, align 8, !tbaa !12
  %50 = load ptr, ptr %11, align 8, !tbaa !14
  %51 = call noundef i32 %45(ptr noundef %46, ptr noundef %47, ptr noundef %48, ptr noundef %49, ptr noundef %50)
  store i32 %51, ptr %6, align 4
  br label %52

52:                                               ; preds = %40, %39, %31
  %53 = load i32, ptr %6, align 4
  ret i32 %53
}