; Function Attrs: mustprogress uwtable
define noundef i32 @_Z27tsi_frame_protector_protectP19tsi_frame_protectorPKhPmPhS3_(ptr noundef %0, ptr noundef %1, ptr noundef %2, ptr noundef %3, ptr noundef %4) local_unnamed_addr #4 {
  %6 = icmp eq ptr %0, null
  br i1 %6, label %19, label %7

7:                                                ; preds = %5
  %8 = load ptr, ptr %0, align 8, !tbaa !3
  %9 = icmp eq ptr %8, null
  %10 = icmp eq ptr %1, null
  %or.cond = or i1 %10, %9
  %11 = icmp eq ptr %2, null
  %or.cond3 = or i1 %11, %or.cond
  %12 = icmp eq ptr %3, null
  %or.cond5 = or i1 %12, %or.cond3
  %13 = icmp eq ptr %4, null
  %or.cond7 = or i1 %13, %or.cond5
  br i1 %or.cond7, label %19, label %14

14:                                               ; preds = %7
  %15 = load ptr, ptr %8, align 8, !tbaa !9
  %16 = icmp eq ptr %15, null
  br i1 %16, label %19, label %17

17:                                               ; preds = %14
  %18 = tail call noundef i32 %15(ptr noundef nonnull %0, ptr noundef nonnull %1, ptr noundef nonnull %2, ptr noundef nonnull %3, ptr noundef nonnull %4)
  br label %19

19:                                               ; preds = %14, %5, %7, %17
  %.0 = phi i32 [ %18, %17 ], [ 2, %7 ], [ 2, %5 ], [ 6, %14 ]
  ret i32 %.0
}